; Function Attrs: mustprogress nounwind uwtable
define dso_local noundef ptr @_ZN5clang8SemaObjC18tryCaptureObjCSelfENS_14SourceLocationE(ptr nocapture noundef nonnull readonly align 8 dereferenceable(328) %0, i32 %1) local_unnamed_addr #0 align 2 {
  %3 = load ptr, ptr %0, align 8
  %4 = tail call noundef ptr @_ZNK5clang4Sema27getFunctionLevelDeclContextEb(ptr noundef nonnull align 8 dereferenceable(17560) %3, i1 noundef zeroext false) #18
  %5 = getelementptr inbounds nuw i8, ptr %4, i64 8
  %6 = load i16, ptr %5, align 8
  %7 = and i16 %6, 127
  %.not = icmp eq i16 %7, 15
  br i1 %.not, label %8, label %14

8:                                                ; preds = %2
  %9 = getelementptr inbounds i8, ptr %4, i64 -48
  %10 = load ptr, ptr %0, align 8
  %11 = getelementptr inbounds i8, ptr %4, i64 72
  %12 = load ptr, ptr %11, align 8
  %13 = tail call noundef zeroext i1 @_ZN5clang4Sema18tryCaptureVariableEPNS_9ValueDeclENS_14SourceLocationENS0_14TryCaptureKindES3_(ptr noundef nonnull align 8 dereferenceable(17560) %10, ptr noundef %12, i32 %1, i32 noundef 0, i32 0) #18
  br label %14

14:                                               ; preds = %2, %8
  %.0 = phi ptr [ %9, %8 ], [ null, %2 ]
  ret ptr %.0
}